target datalayout = "e-m:e-p270:32:32-p271:32:32-p272:64:64-i64:64-i128:128-f80:128-n8:16:32:64-S128"
target triple = "x86_64-pc-linux-gnu"

%struct.expert_field = type { i32, i32 }

@ei_nas_eps_extraneous_data = internal global %struct.expert_field zeroinitializer, align 4

; Function Attrs: null_pointer_is_valid sspstrong uwtable
define internal void @nas_esm_inf_req(ptr noundef %0, ptr noundef %1, ptr noundef %2, i32 noundef %3, i32 noundef %4) #1 {
  %6 = alloca ptr, align 8
  %7 = alloca ptr, align 8
  %8 = alloca ptr, align 8
  %9 = alloca i32, align 4
  %10 = alloca i32, align 4
  %11 = alloca i32, align 4
  %12 = alloca i32, align 4
  store ptr %0, ptr %6, align 8
  store ptr %1, ptr %7, align 8
  store ptr %2, ptr %8, align 8
  store i32 %3, ptr %9, align 4
  store i32 %4, ptr %10, align 4
  call void @llvm.lifetime.start.p0(i64 4, ptr %11) #10
  call void @llvm.lifetime.start.p0(i64 4, ptr %12) #10
  %13 = load i32, ptr %9, align 4
  store i32 %13, ptr %11, align 4
  %14 = load i32, ptr %10, align 4
  store i32 %14, ptr %12, align 4
  %15 = load i32, ptr %12, align 4
  %16 = icmp ugt i32 %15, 0
  br i1 %16, label %17, label %29

17:                                               ; preds = %5
  %18 = load ptr, ptr %7, align 8
  %19 = load ptr, ptr %8, align 8
  %20 = load ptr, ptr %6, align 8
  %21 = load i32, ptr %11, align 4
  %22 = load i32, ptr %12, align 4
  %23 = sub i32 %22, 0
  %24 = call ptr @proto_tree_add_expert(ptr noundef %18, ptr noundef %19, ptr noundef @ei_nas_eps_extraneous_data, ptr noundef %20, i32 noundef %21, i32 noundef %23)
  %25 = load i32, ptr %12, align 4
  %26 = sub i32 %25, 0
  %27 = load i32, ptr %11, align 4
  %28 = add i32 %27, %26
  store i32 %28, ptr %11, align 4
  br label %29

29:                                               ; preds = %17, %5
  call void @llvm.lifetime.end.p0(i64 4, ptr %12) #10
  call void @llvm.lifetime.end.p0(i64 4, ptr %11) #10
  ret void
}