; Function Attrs: null_pointer_is_valid sspstrong uwtable
define internal void @nas_esm_inf_req(ptr noundef %0, ptr noundef %1, ptr noundef %2, i32 noundef %3, i32 noundef %4) #1 {
  %.not = icmp eq i32 %4, 0
  br i1 %.not, label %8, label %6

6:                                                ; preds = %5
  %7 = tail call ptr @proto_tree_add_expert(ptr noundef %1, ptr noundef %2, ptr noundef nonnull @ei_nas_eps_extraneous_data, ptr noundef %0, i32 noundef %3, i32 noundef %4)
  br label %8

8:                                                ; preds = %6, %5
  ret void
}